; Function Attrs: mustprogress nounwind willreturn uwtable
define noalias noundef ptr @Gia_ManSimPatStart(i32 noundef %0) local_unnamed_addr #15 {
  %2 = tail call noalias dereferenceable_or_null(16) ptr @malloc(i64 noundef 16) #31
  %3 = add i32 %0, -1
  %or.cond.i = icmp ult i32 %3, 15
  %spec.store.select.i = select i1 %or.cond.i, i32 16, i32 %0
  %4 = getelementptr inbounds nuw i8, ptr %2, i64 4
  store i32 0, ptr %4, align 4, !tbaa !28
  store i32 %spec.store.select.i, ptr %2, align 8, !tbaa !80
  %.not.i = icmp eq i32 %spec.store.select.i, 0
  br i1 %.not.i, label %Vec_IntPush.exit.thread, label %Vec_IntPush.exit

Vec_IntPush.exit.thread:                          ; preds = %1
  %5 = getelementptr inbounds nuw i8, ptr %2, i64 8
  %6 = tail call noalias dereferenceable_or_null(64) ptr @malloc(i64 noundef 64) #31
  store ptr %6, ptr %5, align 8, !tbaa !29
  store i32 16, ptr %2, align 8, !tbaa !80
  br label %Vec_IntPush.exit11

Vec_IntPush.exit:                                 ; preds = %1
  %7 = sext i32 %spec.store.select.i to i64
  %8 = shl nsw i64 %7, 2
  %9 = tail call noalias ptr @malloc(i64 noundef %8) #31
  %10 = getelementptr inbounds nuw i8, ptr %2, i64 8
  store ptr %9, ptr %10, align 8, !tbaa !29
  br label %Vec_IntPush.exit11

Vec_IntPush.exit11:                               ; preds = %Vec_IntPush.exit.thread, %Vec_IntPush.exit
  %.sink = phi ptr [ %6, %Vec_IntPush.exit.thread ], [ %9, %Vec_IntPush.exit ]
  %11 = phi ptr [ %5, %Vec_IntPush.exit.thread ], [ %10, %Vec_IntPush.exit ]
  store i32 17, ptr %.sink, align 4, !tbaa !30
  %12 = getelementptr inbounds nuw i8, ptr %.sink, i64 4
  store i32 39, ptr %12, align 4, !tbaa !30
  %13 = load i32, ptr %2, align 8, !tbaa !80
  %14 = icmp eq i32 %13, 2
  br i1 %14, label %Vec_IntGrow.exit.i17, label %Vec_IntPush.exit18

Vec_IntGrow.exit.i17:                             ; preds = %Vec_IntPush.exit11
  %15 = tail call dereferenceable_or_null(64) ptr @realloc(ptr noundef nonnull %.sink, i64 noundef 64) #34
  store ptr %15, ptr %11, align 8, !tbaa !29
  store i32 16, ptr %2, align 8, !tbaa !80
  br label %Vec_IntPush.exit18

Vec_IntPush.exit18:                               ; preds = %Vec_IntPush.exit11, %Vec_IntGrow.exit.i17
  %16 = phi ptr [ %15, %Vec_IntGrow.exit.i17 ], [ %.sink, %Vec_IntPush.exit11 ]
  store i32 3, ptr %4, align 4, !tbaa !28
  %17 = getelementptr inbounds nuw i8, ptr %16, i64 8
  store i32 56, ptr %17, align 4, !tbaa !30
  %18 = load i32, ptr %4, align 4, !tbaa !28
  %19 = load i32, ptr %2, align 8, !tbaa !80
  %20 = icmp eq i32 %18, %19
  br i1 %20, label %Vec_IntPush.exit25.sink.split, label %Vec_IntPush.exit25

Vec_IntPush.exit25.sink.split:                    ; preds = %Vec_IntPush.exit18
  %21 = icmp slt i32 %18, 16
  %22 = shl nuw nsw i32 %18, 1
  %23 = zext nneg i32 %22 to i64
  %24 = shl nuw nsw i64 %23, 2
  %.sink28 = select i1 %21, i64 64, i64 %24
  %.sink26 = select i1 %21, i32 16, i32 %22
  %25 = tail call ptr @realloc(ptr noundef nonnull %16, i64 noundef %.sink28) #34
  store ptr %25, ptr %11, align 8, !tbaa !29
  store i32 %.sink26, ptr %2, align 8, !tbaa !80
  br label %Vec_IntPush.exit25

Vec_IntPush.exit25:                               ; preds = %Vec_IntPush.exit25.sink.split, %Vec_IntPush.exit18
  %26 = phi ptr [ %16, %Vec_IntPush.exit18 ], [ %25, %Vec_IntPush.exit25.sink.split ]
  %27 = add nsw i32 %18, 1
  store i32 %27, ptr %4, align 4, !tbaa !28
  %28 = sext i32 %18 to i64
  %29 = getelementptr inbounds i32, ptr %26, i64 %28
  store i32 221, ptr %29, align 4, !tbaa !30
  ret ptr %2
}